; ModuleID = 'source-C-CXX/32/894.c'
source_filename = "source-C-CXX/32/894.c"
target datalayout = "e-m:e-p270:32:32-p271:32:32-p272:64:64-i64:64-f80:128-n8:16:32:64-S128"
target triple = "x86_64-pc-linux-gnu"

@.str = private unnamed_addr constant [3 x i8] c"%d\00", align 1
@.str.1 = private unnamed_addr constant [3 x i8] c"%s\00", align 1

; Function Attrs: nofree nounwind sspstrong uwtable
define dso_local i32 @main() local_unnamed_addr #0 {
  %1 = alloca i32, align 4
  %2 = alloca [1000 x i8], align 16
  %3 = alloca [1000 x i8], align 16
  %4 = bitcast i32* %1 to i8*
  call void @llvm.lifetime.start.p0i8(i64 4, i8* nonnull %4) #3
  %5 = getelementptr inbounds [1000 x i8], [1000 x i8]* %2, i64 0, i64 0
  call void @llvm.lifetime.start.p0i8(i64 1000, i8* nonnull %5) #3
  %6 = getelementptr inbounds [1000 x i8], [1000 x i8]* %3, i64 0, i64 0
  call void @llvm.lifetime.start.p0i8(i64 1000, i8* nonnull %6) #3
  %7 = call i32 (i8*, ...) @__isoc99_scanf(i8* getelementptr inbounds ([3 x i8], [3 x i8]* @.str, i64 0, i64 0), i32* nonnull %1)
  %8 = load i32, i32* %1, align 4, !tbaa !5
  %9 = icmp sgt i32 %8, 0
  br i1 %9, label %10, label %36

10:                                               ; preds = %0, %31
  %11 = phi i32 [ %33, %31 ], [ 0, %0 ]
  %12 = call i32 (i8*, ...) @__isoc99_scanf(i8* getelementptr inbounds ([3 x i8], [3 x i8]* @.str.1, i64 0, i64 0), [1000 x i8]* nonnull %2)
  br label %13

13:                                               ; preds = %45, %10
  %14 = phi i64 [ 0, %10 ], [ %46, %45 ]
  %15 = getelementptr inbounds [1000 x i8], [1000 x i8]* %2, i64 0, i64 %14
  %16 = load i8, i8* %15, align 2, !tbaa !9
  %17 = icmp eq i8 %16, 0
  br i1 %17, label %23, label %18

18:                                               ; preds = %13
  %19 = sext i8 %16 to i32
  switch i32 %19, label %26 [
    i32 71, label %23
    i32 67, label %20
    i32 65, label %21
    i32 84, label %22
  ]

20:                                               ; preds = %18
  br label %23

21:                                               ; preds = %18
  br label %23

22:                                               ; preds = %18
  br label %23

23:                                               ; preds = %18, %13, %22, %21, %20
  %24 = phi i8 [ 71, %20 ], [ 84, %21 ], [ 65, %22 ], [ 0, %13 ], [ 67, %18 ]
  %25 = getelementptr inbounds [1000 x i8], [1000 x i8]* %3, i64 0, i64 %14
  store i8 %24, i8* %25, align 2, !tbaa !9
  br label %26

26:                                               ; preds = %23, %18
  %27 = or i64 %14, 1
  %28 = getelementptr inbounds [1000 x i8], [1000 x i8]* %2, i64 0, i64 %27
  %29 = load i8, i8* %28, align 1, !tbaa !9
  %30 = icmp eq i8 %29, 0
  br i1 %30, label %42, label %37

31:                                               ; preds = %45
  %32 = call i32 @puts(i8* nonnull %6)
  %33 = add nuw nsw i32 %11, 1
  %34 = load i32, i32* %1, align 4, !tbaa !5
  %35 = icmp slt i32 %33, %34
  br i1 %35, label %10, label %36, !llvm.loop !10

36:                                               ; preds = %31, %0
  call void @llvm.lifetime.end.p0i8(i64 1000, i8* nonnull %6) #3
  call void @llvm.lifetime.end.p0i8(i64 1000, i8* nonnull %5) #3
  call void @llvm.lifetime.end.p0i8(i64 4, i8* nonnull %4) #3
  ret i32 0

37:                                               ; preds = %26
  %38 = sext i8 %29 to i32
  switch i32 %38, label %45 [
    i32 71, label %42
    i32 67, label %41
    i32 65, label %40
    i32 84, label %39
  ]

39:                                               ; preds = %37
  br label %42

40:                                               ; preds = %37
  br label %42

41:                                               ; preds = %37
  br label %42

42:                                               ; preds = %41, %40, %39, %37, %26
  %43 = phi i8 [ 71, %41 ], [ 84, %40 ], [ 65, %39 ], [ 0, %26 ], [ 67, %37 ]
  %44 = getelementptr inbounds [1000 x i8], [1000 x i8]* %3, i64 0, i64 %27
  store i8 %43, i8* %44, align 1, !tbaa !9
  br label %45

45:                                               ; preds = %42, %37
  %46 = add nuw nsw i64 %14, 2
  %47 = icmp eq i64 %46, 1000
  br i1 %47, label %31, label %13, !llvm.loop !12
}

; Function Attrs: argmemonly mustprogress nofree nosync nounwind willreturn
declare void @llvm.lifetime.start.p0i8(i64 immarg, i8* nocapture) #1

; Function Attrs: nofree nounwind
declare noundef i32 @__isoc99_scanf(i8* nocapture noundef readonly, ...) local_unnamed_addr #2

; Function Attrs: nofree nounwind
declare noundef i32 @puts(i8* nocapture noundef readonly) local_unnamed_addr #2

; Function Attrs: argmemonly mustprogress nofree nosync nounwind willreturn
declare void @llvm.lifetime.end.p0i8(i64 immarg, i8* nocapture) #1


!llvm.module.flags = !{!0, !1, !2, !3}
!llvm.ident = !{!4}

!0 = !{i32 1, !"wchar_size", i32 4}
!1 = !{i32 7, !"PIC Level", i32 2}
!2 = !{i32 7, !"PIE Level", i32 2}
!3 = !{i32 7, !"uwtable", i32 1}
!4 = !{!"clang version 13.0.0"}
!5 = !{!6, !6, i64 0}
!6 = !{!"int", !7, i64 0}
!7 = !{!"omnipotent char", !8, i64 0}
!8 = !{!"Simple C/C++ TBAA"}
!9 = !{!7, !7, i64 0}
!10 = distinct !{!10, !11}
!11 = !{!"llvm.loop.mustprogress"}
!12 = distinct !{!12, !11}
